(dp0
S'data'
p1
ccollections
OrderedDict
p2
((lp3
(lp4
S'error'
p5
a(lp6
cnumpy.core.multiarray
_reconstruct
p7
(cnumpy
ndarray
p8
(I0
tp9
S'b'
p10
tp11
Rp12
(I1
(tcnumpy
dtype
p13
(S'f8'
p14
I0
I1
tp15
Rp16
(I3
S'<'
p17
NNNI-1
I-1
I0
tp18
bI00
S'%\x13\x16)\x14\xbb\xdc?'
p19
tp20
baaa(lp21
S'iteration'
p22
a(lp23
I0
aaa(lp24
S'accuracy'
p25
a(lp26
g7
(g8
(I0
tp27
g10
tp28
Rp29
(I1
(tg16
I00
S'\x00\x00\x00\x00\x00\x00\xf0?'
p30
tp31
baaatp32
Rp33
s.