ccollections
OrderedDict
p0
((lp1
(lp2
S'error'
p3
a(lp4
cnumpy.core.multiarray
_reconstruct
p5
(cnumpy
ndarray
p6
(I0
tp7
S'b'
p8
tp9
Rp10
(I1
(tcnumpy
dtype
p11
(S'f8'
p12
I0
I1
tp13
Rp14
(I3
S'<'
p15
NNNI-1
I-1
I0
tp16
bI00
S'\x00\x00\x00\x00\x00\x00\x00\x80'
p17
tp18
bag5
(g6
(I0
tp19
g8
tp20
Rp21
(I1
(tg14
I00
S'\x00\x00\x00\x00\x00\x00\x00\x80'
p22
tp23
bag5
(g6
(I0
tp24
g8
tp25
Rp26
(I1
(tg14
I00
S'\x00\x00\x00@\xd1\xbd\x1bA'
p27
tp28
bag5
(g6
(I0
tp29
g8
tp30
Rp31
(I1
(tg14
I00
S'\x00\x00\x00`Z\xe9\xcf@'
p32
tp33
baaa(lp34
S'iteration'
p35
a(lp36
I0
aI1
aI2
aI3
aaa(lp37
S'accuracy'
p38
a(lp39
g5
(g6
(I0
tp40
g8
tp41
Rp42
(I1
(tg11
(S'f4'
p43
I0
I1
tp44
Rp45
(I3
S'<'
p46
NNNI-1
I-1
I0
tp47
bI00
S'\x00\x00\x80?'
p48
tp49
bag5
(g6
(I0
tp50
g8
tp51
Rp52
(I1
(tg45
I00
S'\x00\x00\x80?'
p53
tp54
bag5
(g6
(I0
tp55
g8
tp56
Rp57
(I1
(tg45
I00
S'\x00\x00\x00\x00'
p58
tp59
bag5
(g6
(I0
tp60
g8
tp61
Rp62
(I1
(tg45
I00
S'\x00\x00\x00\x00'
p63
tp64
baaatp65
Rp66
.