(dp0
S'data'
p1
ccollections
OrderedDict
p2
((lp3
(lp4
S'error'
p5
a(lp6
cnumpy.core.multiarray
_reconstruct
p7
(cnumpy
ndarray
p8
(I0
tp9
S'b'
p10
tp11
Rp12
(I1
(tcnumpy
dtype
p13
(S'f8'
p14
I0
I1
tp15
Rp16
(I3
S'<'
p17
NNNI-1
I-1
I0
tp18
bI00
S'\x00\x00\x00@\xe5@TA'
p19
tp20
baaa(lp21
S'iteration'
p22
a(lp23
I0
aaa(lp24
S'accuracy'
p25
a(lp26
g7
(g8
(I0
tp27
g10
tp28
Rp29
(I1
(tg13
(S'f4'
p30
I0
I1
tp31
Rp32
(I3
S'<'
p33
NNNI-1
I-1
I0
tp34
bI00
S'\x00\x00\x00\x00'
p35
tp36
baaatp37
Rp38
s.