ccollections
OrderedDict
p0
((lp1
(lp2
S'error'
p3
a(lp4
cnumpy.core.multiarray
_reconstruct
p5
(cnumpy
ndarray
p6
(I0
tp7
S'b'
p8
tp9
Rp10
(I1
(tcnumpy
dtype
p11
(S'f8'
p12
I0
I1
tp13
Rp14
(I3
S'<'
p15
NNNI-1
I-1
I0
tp16
bI00
S'\x00\x00\x00\x00\x00\x00\x00\x80'
p17
tp18
bag5
(g6
(I0
tp19
g8
tp20
Rp21
(I1
(tg14
I00
S'\x00\x00\x00\x00\x00\x00\x00\x80'
p22
tp23
bag5
(g6
(I0
tp24
g8
tp25
Rp26
(I1
(tg14
I00
S'\x00\x00\x00`\x97\x13\x10A'
p27
tp28
bag5
(g6
(I0
tp29
g8
tp30
Rp31
(I1
(tg14
I00
S'\x00\x00\x00@\xd2\x1c\x0fA'
p32
tp33
bag5
(g6
(I0
tp34
g8
tp35
Rp36
(I1
(tg14
I00
S'\x00\x00\x00\xa0\x88-\xb6@'
p37
tp38
bag5
(g6
(I0
tp39
g8
tp40
Rp41
(I1
(tg14
I00
S'\x00\x00\x00@\xe9\x9d\xf3@'
p42
tp43
bag5
(g6
(I0
tp44
g8
tp45
Rp46
(I1
(tg14
I00
S'\x00\x00\x00\x00\x18\x02\xf0@'
p47
tp48
bag5
(g6
(I0
tp49
g8
tp50
Rp51
(I1
(tg14
I00
S'\x00\x00\x00@\xcao\xcc@'
p52
tp53
bag5
(g6
(I0
tp54
g8
tp55
Rp56
(I1
(tg14
I00
S'\x00\x00\x00\x00\x00\x00\x00\x80'
p57
tp58
bag5
(g6
(I0
tp59
g8
tp60
Rp61
(I1
(tg14
I00
S'\x00\x00\x00\x00\x89\xb3\xaf@'
p62
tp63
bag5
(g6
(I0
tp64
g8
tp65
Rp66
(I1
(tg14
I00
S'\x00\x00\x00\x00\x00\x00\x00\x80'
p67
tp68
baaa(lp69
S'iteration'
p70
a(lp71
I0
aI1
aI2
aI3
aI4
aI5
aI6
aI7
aI8
aI9
aI10
aaa(lp72
S'accuracy'
p73
a(lp74
g5
(g6
(I0
tp75
g8
tp76
Rp77
(I1
(tg11
(S'f4'
p78
I0
I1
tp79
Rp80
(I3
S'<'
p81
NNNI-1
I-1
I0
tp82
bI00
S'\x00\x00\x80?'
p83
tp84
bag5
(g6
(I0
tp85
g8
tp86
Rp87
(I1
(tg80
I00
S'\x00\x00\x80?'
p88
tp89
bag5
(g6
(I0
tp90
g8
tp91
Rp92
(I1
(tg80
I00
S'\x00\x00\x00\x00'
p93
tp94
bag5
(g6
(I0
tp95
g8
tp96
Rp97
(I1
(tg80
I00
S'\x00\x00\x00\x00'
p98
tp99
bag5
(g6
(I0
tp100
g8
tp101
Rp102
(I1
(tg80
I00
S'\x00\x00\x00\x00'
p103
tp104
bag5
(g6
(I0
tp105
g8
tp106
Rp107
(I1
(tg80
I00
S'\x00\x00\x00\x00'
p108
tp109
bag5
(g6
(I0
tp110
g8
tp111
Rp112
(I1
(tg80
I00
S'\x00\x00\x00\x00'
p113
tp114
bag5
(g6
(I0
tp115
g8
tp116
Rp117
(I1
(tg80
I00
S'\x00\x00\x00\x00'
p118
tp119
bag5
(g6
(I0
tp120
g8
tp121
Rp122
(I1
(tg80
I00
S'\x00\x00\x80?'
p123
tp124
bag5
(g6
(I0
tp125
g8
tp126
Rp127
(I1
(tg80
I00
S'\x00\x00\x00\x00'
p128
tp129
bag5
(g6
(I0
tp130
g8
tp131
Rp132
(I1
(tg80
I00
S'\x00\x00\x80?'
p133
tp134
baaatp135
Rp136
.